target datalayout = "e-m:e-p270:32:32-p271:32:32-p272:64:64-i64:64-i128:128-f80:128-n8:16:32:64-S128"
target triple = "x86_64-pc-linux-gnu"

%struct.strbuf = type { i64, i64, ptr }
%struct.object_id = type { [32 x i8], i32 }
%struct.apply_state = type { ptr, %struct.lock_file, i32, i32, i32, i32, i32, i32, i32, i32, i32, i32, i32, i32, i32, i32, i32, i32, i32, ptr, ptr, i32, i32, ptr, ptr, i32, %struct.strbuf, i32, i32, i32, %struct.string_list, i32, i32, %struct.strset, %struct.strset, i32, i32, %struct.string_list, ptr, ptr, i32, i32, ptr, i32, i32, i32 }
%struct.lock_file = type { ptr }
%struct.strset = type { %struct.strmap }
%struct.strmap = type { %struct.hashmap, ptr, i8 }
%struct.hashmap = type { ptr, ptr, ptr, i32, i32, i32, i32, i8 }
%struct.string_list = type { ptr, i64, i64, i8, ptr }
%struct.patch = type { ptr, ptr, ptr, i32, i32, i32, i32, i32, i32, i32, i32, i32, i32, i16, ptr, ptr, i64, [65 x i8], [65 x i8], ptr, [3 x %struct.object_id] }

@stdout = external global ptr, align 8
@__const.show_stats.qname = private unnamed_addr constant %struct.strbuf { i64 0, i64 0, ptr @strbuf_slopbuf }, align 8
@.str.253 = private unnamed_addr constant [4 x i8] c"...\00", align 1
@.str.254 = private unnamed_addr constant [14 x i8] c" %-*s |  Bin\0A\00", align 1
@.str.255 = private unnamed_addr constant [8 x i8] c" %-*s |\00", align 1
@.str.256 = private unnamed_addr constant [14 x i8] c"%5d %.*s%.*s\0A\00", align 1
@pluses = internal constant [71 x i8] c"++++++++++++++++++++++++++++++++++++++++++++++++++++++++++++++++++++++\00", align 16
@minuses = internal constant [71 x i8] c"----------------------------------------------------------------------\00", align 16

; Function Attrs: nounwind uwtable
define internal void @show_stats(ptr noundef %0, ptr noundef %1) #0 {
  %3 = alloca ptr, align 8
  %4 = alloca ptr, align 8
  %5 = alloca %struct.strbuf, align 8
  %6 = alloca ptr, align 8
  %7 = alloca i32, align 4
  %8 = alloca i32, align 4
  %9 = alloca i32, align 4
  %10 = alloca i32, align 4
  %11 = alloca i32, align 4
  store ptr %0, ptr %3, align 8, !tbaa !4
  store ptr %1, ptr %4, align 8, !tbaa !60
  call void @llvm.lifetime.start.p0(i64 24, ptr %5) #12
  call void @llvm.memcpy.p0.p0.i64(ptr align 8 %5, ptr align 8 @__const.show_stats.qname, i64 24, i1 false)
  call void @llvm.lifetime.start.p0(i64 8, ptr %6) #12
  %12 = load ptr, ptr %4, align 8, !tbaa !60
  %13 = getelementptr inbounds nuw %struct.patch, ptr %12, i32 0, i32 0
  %14 = load ptr, ptr %13, align 8, !tbaa !67
  %15 = icmp ne ptr %14, null
  br i1 %15, label %16, label %20

16:                                               ; preds = %2
  %17 = load ptr, ptr %4, align 8, !tbaa !60
  %18 = getelementptr inbounds nuw %struct.patch, ptr %17, i32 0, i32 0
  %19 = load ptr, ptr %18, align 8, !tbaa !67
  br label %24

20:                                               ; preds = %2
  %21 = load ptr, ptr %4, align 8, !tbaa !60
  %22 = getelementptr inbounds nuw %struct.patch, ptr %21, i32 0, i32 1
  %23 = load ptr, ptr %22, align 8, !tbaa !66
  br label %24

24:                                               ; preds = %20, %16
  %25 = phi ptr [ %19, %16 ], [ %23, %20 ]
  store ptr %25, ptr %6, align 8, !tbaa !11
  call void @llvm.lifetime.start.p0(i64 4, ptr %7) #12
  call void @llvm.lifetime.start.p0(i64 4, ptr %8) #12
  call void @llvm.lifetime.start.p0(i64 4, ptr %9) #12
  %26 = load ptr, ptr %6, align 8, !tbaa !11
  %27 = call i64 @quote_c_style(ptr noundef %26, ptr noundef %5, ptr noundef null, i32 noundef 0)
  %28 = load ptr, ptr %3, align 8, !tbaa !4
  %29 = getelementptr inbounds nuw %struct.apply_state, ptr %28, i32 0, i32 36
  %30 = load i32, ptr %29, align 4, !tbaa !179
  store i32 %30, ptr %7, align 4, !tbaa !39
  %31 = load i32, ptr %7, align 4, !tbaa !39
  %32 = icmp sgt i32 %31, 50
  br i1 %32, label %33, label %34

33:                                               ; preds = %24
  store i32 50, ptr %7, align 4, !tbaa !39
  br label %34

34:                                               ; preds = %33, %24
  %35 = getelementptr inbounds nuw %struct.strbuf, ptr %5, i32 0, i32 1
  %36 = load i64, ptr %35, align 8, !tbaa !81
  %37 = load i32, ptr %7, align 4, !tbaa !39
  %38 = sext i32 %37 to i64
  %39 = icmp ugt i64 %36, %38
  br i1 %39, label %40, label %72

40:                                               ; preds = %34
  %41 = getelementptr inbounds nuw %struct.strbuf, ptr %5, i32 0, i32 2
  %42 = load ptr, ptr %41, align 8, !tbaa !82
  %43 = getelementptr inbounds nuw %struct.strbuf, ptr %5, i32 0, i32 1
  %44 = load i64, ptr %43, align 8, !tbaa !81
  %45 = getelementptr inbounds nuw i8, ptr %42, i64 %44
  %46 = getelementptr inbounds i8, ptr %45, i64 3
  %47 = load i32, ptr %7, align 4, !tbaa !39
  %48 = sext i32 %47 to i64
  %49 = sub i64 0, %48
  %50 = getelementptr inbounds i8, ptr %46, i64 %49
  %51 = call ptr @strchr(ptr noundef %50, i32 noundef 47) #11
  store ptr %51, ptr %6, align 8, !tbaa !11
  %52 = load ptr, ptr %6, align 8, !tbaa !11
  %53 = icmp ne ptr %52, null
  br i1 %53, label %65, label %54

54:                                               ; preds = %40
  %55 = getelementptr inbounds nuw %struct.strbuf, ptr %5, i32 0, i32 2
  %56 = load ptr, ptr %55, align 8, !tbaa !82
  %57 = getelementptr inbounds nuw %struct.strbuf, ptr %5, i32 0, i32 1
  %58 = load i64, ptr %57, align 8, !tbaa !81
  %59 = getelementptr inbounds nuw i8, ptr %56, i64 %58
  %60 = getelementptr inbounds i8, ptr %59, i64 3
  %61 = load i32, ptr %7, align 4, !tbaa !39
  %62 = sext i32 %61 to i64
  %63 = sub i64 0, %62
  %64 = getelementptr inbounds i8, ptr %60, i64 %63
  store ptr %64, ptr %6, align 8, !tbaa !11
  br label %65

65:                                               ; preds = %54, %40
  %66 = load ptr, ptr %6, align 8, !tbaa !11
  %67 = getelementptr inbounds nuw %struct.strbuf, ptr %5, i32 0, i32 2
  %68 = load ptr, ptr %67, align 8, !tbaa !82
  %69 = ptrtoint ptr %66 to i64
  %70 = ptrtoint ptr %68 to i64
  %71 = sub i64 %69, %70
  call void @strbuf_splice(ptr noundef %5, i64 noundef 0, i64 noundef %71, ptr noundef @.str.253, i64 noundef 3)
  br label %72

72:                                               ; preds = %65, %34
  %73 = load ptr, ptr %4, align 8, !tbaa !60
  %74 = getelementptr inbounds nuw %struct.patch, ptr %73, i32 0, i32 13
  %75 = load i16, ptr %74, align 8
  %76 = lshr i16 %75, 2
  %77 = and i16 %76, 1
  %78 = zext i16 %77 to i32
  %79 = icmp ne i32 %78, 0
  br i1 %79, label %80, label %85

80:                                               ; preds = %72
  %81 = load i32, ptr %7, align 4, !tbaa !39
  %82 = getelementptr inbounds nuw %struct.strbuf, ptr %5, i32 0, i32 2
  %83 = load ptr, ptr %82, align 8, !tbaa !82
  %84 = call i32 (ptr, ...) @printf(ptr noundef @.str.254, i32 noundef %81, ptr noundef %83)
  call void @strbuf_release(ptr noundef %5)
  store i32 1, ptr %10, align 4
  br label %156

85:                                               ; preds = %72
  %86 = load i32, ptr %7, align 4, !tbaa !39
  %87 = getelementptr inbounds nuw %struct.strbuf, ptr %5, i32 0, i32 2
  %88 = load ptr, ptr %87, align 8, !tbaa !82
  %89 = call i32 (ptr, ...) @printf(ptr noundef @.str.255, i32 noundef %86, ptr noundef %88)
  call void @strbuf_release(ptr noundef %5)
  %90 = load i32, ptr %7, align 4, !tbaa !39
  %91 = load ptr, ptr %3, align 8, !tbaa !4
  %92 = getelementptr inbounds nuw %struct.apply_state, ptr %91, i32 0, i32 35
  %93 = load i32, ptr %92, align 8, !tbaa !178
  %94 = add nsw i32 %90, %93
  %95 = icmp sgt i32 %94, 70
  br i1 %95, label %96, label %99

96:                                               ; preds = %85
  %97 = load i32, ptr %7, align 4, !tbaa !39
  %98 = sub nsw i32 70, %97
  br label %103

99:                                               ; preds = %85
  %100 = load ptr, ptr %3, align 8, !tbaa !4
  %101 = getelementptr inbounds nuw %struct.apply_state, ptr %100, i32 0, i32 35
  %102 = load i32, ptr %101, align 8, !tbaa !178
  br label %103

103:                                              ; preds = %99, %96
  %104 = phi i32 [ %98, %96 ], [ %102, %99 ]
  store i32 %104, ptr %7, align 4, !tbaa !39
  %105 = load ptr, ptr %4, align 8, !tbaa !60
  %106 = getelementptr inbounds nuw %struct.patch, ptr %105, i32 0, i32 9
  %107 = load i32, ptr %106, align 8, !tbaa !176
  store i32 %107, ptr %8, align 4, !tbaa !39
  %108 = load ptr, ptr %4, align 8, !tbaa !60
  %109 = getelementptr inbounds nuw %struct.patch, ptr %108, i32 0, i32 10
  %110 = load i32, ptr %109, align 4, !tbaa !177
  store i32 %110, ptr %9, align 4, !tbaa !39
  %111 = load ptr, ptr %3, align 8, !tbaa !4
  %112 = getelementptr inbounds nuw %struct.apply_state, ptr %111, i32 0, i32 35
  %113 = load i32, ptr %112, align 8, !tbaa !178
  %114 = icmp sgt i32 %113, 0
  br i1 %114, label %115, label %145

115:                                              ; preds = %103
  call void @llvm.lifetime.start.p0(i64 4, ptr %11) #12
  %116 = load i32, ptr %8, align 4, !tbaa !39
  %117 = load i32, ptr %9, align 4, !tbaa !39
  %118 = add nsw i32 %116, %117
  %119 = load i32, ptr %7, align 4, !tbaa !39
  %120 = mul nsw i32 %118, %119
  %121 = load ptr, ptr %3, align 8, !tbaa !4
  %122 = getelementptr inbounds nuw %struct.apply_state, ptr %121, i32 0, i32 35
  %123 = load i32, ptr %122, align 8, !tbaa !178
  %124 = sdiv i32 %123, 2
  %125 = add nsw i32 %120, %124
  %126 = load ptr, ptr %3, align 8, !tbaa !4
  %127 = getelementptr inbounds nuw %struct.apply_state, ptr %126, i32 0, i32 35
  %128 = load i32, ptr %127, align 8, !tbaa !178
  %129 = sdiv i32 %125, %128
  store i32 %129, ptr %11, align 4, !tbaa !39
  %130 = load i32, ptr %8, align 4, !tbaa !39
  %131 = load i32, ptr %7, align 4, !tbaa !39
  %132 = mul nsw i32 %130, %131
  %133 = load ptr, ptr %3, align 8, !tbaa !4
  %134 = getelementptr inbounds nuw %struct.apply_state, ptr %133, i32 0, i32 35
  %135 = load i32, ptr %134, align 8, !tbaa !178
  %136 = sdiv i32 %135, 2
  %137 = add nsw i32 %132, %136
  %138 = load ptr, ptr %3, align 8, !tbaa !4
  %139 = getelementptr inbounds nuw %struct.apply_state, ptr %138, i32 0, i32 35
  %140 = load i32, ptr %139, align 8, !tbaa !178
  %141 = sdiv i32 %137, %140
  store i32 %141, ptr %8, align 4, !tbaa !39
  %142 = load i32, ptr %11, align 4, !tbaa !39
  %143 = load i32, ptr %8, align 4, !tbaa !39
  %144 = sub nsw i32 %142, %143
  store i32 %144, ptr %9, align 4, !tbaa !39
  call void @llvm.lifetime.end.p0(i64 4, ptr %11) #12
  br label %145

145:                                              ; preds = %115, %103
  %146 = load ptr, ptr %4, align 8, !tbaa !60
  %147 = getelementptr inbounds nuw %struct.patch, ptr %146, i32 0, i32 9
  %148 = load i32, ptr %147, align 8, !tbaa !176
  %149 = load ptr, ptr %4, align 8, !tbaa !60
  %150 = getelementptr inbounds nuw %struct.patch, ptr %149, i32 0, i32 10
  %151 = load i32, ptr %150, align 4, !tbaa !177
  %152 = add nsw i32 %148, %151
  %153 = load i32, ptr %8, align 4, !tbaa !39
  %154 = load i32, ptr %9, align 4, !tbaa !39
  %155 = call i32 (ptr, ...) @printf(ptr noundef @.str.256, i32 noundef %152, i32 noundef %153, ptr noundef @pluses, i32 noundef %154, ptr noundef @minuses)
  store i32 0, ptr %10, align 4
  br label %156

156:                                              ; preds = %145, %80
  call void @llvm.lifetime.end.p0(i64 4, ptr %9) #12
  call void @llvm.lifetime.end.p0(i64 4, ptr %8) #12
  call void @llvm.lifetime.end.p0(i64 4, ptr %7) #12
  call void @llvm.lifetime.end.p0(i64 8, ptr %6) #12
  call void @llvm.lifetime.end.p0(i64 24, ptr %5) #12
  %157 = load i32, ptr %10, align 4
  switch i32 %157, label %159 [
    i32 0, label %158
    i32 1, label %158
  ]

158:                                              ; preds = %156, %156
  ret void

159:                                              ; preds = %156
  unreachable
}

; Function Attrs: nounwind uwtable
define internal void @stat_patch_list(ptr noundef %0, ptr noundef %1) #0 {
  %3 = alloca ptr, align 8
  %4 = alloca ptr, align 8
  %5 = alloca i32, align 4
  %6 = alloca i32, align 4
  %7 = alloca i32, align 4
  store ptr %0, ptr %3, align 8, !tbaa !4
  store ptr %1, ptr %4, align 8, !tbaa !60
  call void @llvm.lifetime.start.p0(i64 4, ptr %5) #12
  call void @llvm.lifetime.start.p0(i64 4, ptr %6) #12
  call void @llvm.lifetime.start.p0(i64 4, ptr %7) #12
  store i32 0, ptr %7, align 4, !tbaa !39
  store i32 0, ptr %6, align 4, !tbaa !39
  store i32 0, ptr %5, align 4, !tbaa !39
  br label %8

8:                                                ; preds = %26, %2
  %9 = load ptr, ptr %4, align 8, !tbaa !60
  %10 = icmp ne ptr %9, null
  br i1 %10, label %11, label %30

11:                                               ; preds = %8
  %12 = load i32, ptr %5, align 4, !tbaa !39
  %13 = add nsw i32 %12, 1
  store i32 %13, ptr %5, align 4, !tbaa !39
  %14 = load ptr, ptr %4, align 8, !tbaa !60
  %15 = getelementptr inbounds nuw %struct.patch, ptr %14, i32 0, i32 9
  %16 = load i32, ptr %15, align 8, !tbaa !176
  %17 = load i32, ptr %6, align 4, !tbaa !39
  %18 = add nsw i32 %17, %16
  store i32 %18, ptr %6, align 4, !tbaa !39
  %19 = load ptr, ptr %4, align 8, !tbaa !60
  %20 = getelementptr inbounds nuw %struct.patch, ptr %19, i32 0, i32 10
  %21 = load i32, ptr %20, align 4, !tbaa !177
  %22 = load i32, ptr %7, align 4, !tbaa !39
  %23 = add nsw i32 %22, %21
  store i32 %23, ptr %7, align 4, !tbaa !39
  %24 = load ptr, ptr %3, align 8, !tbaa !4
  %25 = load ptr, ptr %4, align 8, !tbaa !60
  call void @show_stats(ptr noundef %24, ptr noundef %25)
  br label %26

26:                                               ; preds = %11
  %27 = load ptr, ptr %4, align 8, !tbaa !60
  %28 = getelementptr inbounds nuw %struct.patch, ptr %27, i32 0, i32 19
  %29 = load ptr, ptr %28, align 8, !tbaa !130
  store ptr %29, ptr %4, align 8, !tbaa !60
  br label %8, !llvm.loop !204

30:                                               ; preds = %8
  %31 = load ptr, ptr @stdout, align 8, !tbaa !131
  %32 = load i32, ptr %5, align 4, !tbaa !39
  %33 = load i32, ptr %6, align 4, !tbaa !39
  %34 = load i32, ptr %7, align 4, !tbaa !39
  call void @print_stat_summary(ptr noundef %31, i32 noundef %32, i32 noundef %33, i32 noundef %34)
  call void @llvm.lifetime.end.p0(i64 4, ptr %7) #12
  call void @llvm.lifetime.end.p0(i64 4, ptr %6) #12
  call void @llvm.lifetime.end.p0(i64 4, ptr %5) #12
  ret void
}