; Function Attrs: nounwind uwtable
define internal fastcc void @stat_patch_list(ptr noundef readonly captures(none) %0, ptr noundef readonly %1) unnamed_addr #0 {
  %3 = alloca %struct.strbuf, align 8
  %.not14 = icmp eq ptr %1, null
  br i1 %.not14, label %._crit_edge, label %.lr.ph

.lr.ph:                                           ; preds = %2
  %4 = getelementptr inbounds nuw i8, ptr %0, i64 356
  %5 = getelementptr inbounds nuw i8, ptr %3, i64 8
  %6 = getelementptr inbounds nuw i8, ptr %3, i64 16
  %7 = getelementptr inbounds nuw i8, ptr %0, i64 352
  br label %8

8:                                                ; preds = %.lr.ph, %show_stats.exit
  %.018 = phi i32 [ 0, %.lr.ph ], [ %15, %show_stats.exit ]
  %.01117 = phi i32 [ 0, %.lr.ph ], [ %12, %show_stats.exit ]
  %.01216 = phi i32 [ 0, %.lr.ph ], [ %9, %show_stats.exit ]
  %.01315 = phi ptr [ %1, %.lr.ph ], [ %67, %show_stats.exit ]
  %9 = add nuw nsw i32 %.01216, 1
  %10 = getelementptr inbounds nuw i8, ptr %.01315, i64 48
  %11 = load i32, ptr %10, align 8, !tbaa !133
  %12 = add nsw i32 %11, %.01117
  %13 = getelementptr inbounds nuw i8, ptr %.01315, i64 52
  %14 = load i32, ptr %13, align 4, !tbaa !134
  %15 = add nsw i32 %14, %.018
  call void @llvm.lifetime.start.p0(i64 24, ptr nonnull %3) #21
  call void @llvm.memcpy.p0.p0.i64(ptr noundef nonnull align 8 dereferenceable(24) %3, ptr noundef nonnull align 8 dereferenceable(24) @__const.show_stats.qname, i64 24, i1 false)
  %16 = load ptr, ptr %.01315, align 8, !tbaa !65
  %.not.i = icmp eq ptr %16, null
  br i1 %.not.i, label %17, label %20

17:                                               ; preds = %8
  %18 = getelementptr inbounds nuw i8, ptr %.01315, i64 8
  %19 = load ptr, ptr %18, align 8, !tbaa !64
  br label %20

20:                                               ; preds = %17, %8
  %21 = phi ptr [ %19, %17 ], [ %16, %8 ]
  %22 = call i64 @quote_c_style(ptr noundef %21, ptr noundef nonnull %3, ptr noundef null, i32 noundef 0) #21
  %23 = load i32, ptr %4, align 4, !tbaa !144
  %spec.store.select.i = call i32 @llvm.smin.i32(i32 %23, i32 50)
  %24 = load i64, ptr %5, align 8, !tbaa !70
  %25 = sext i32 %spec.store.select.i to i64
  %26 = icmp ugt i64 %24, %25
  br i1 %26, label %27, label %37

27:                                               ; preds = %20
  %28 = load ptr, ptr %6, align 8, !tbaa !69
  %29 = getelementptr inbounds nuw i8, ptr %28, i64 %24
  %30 = getelementptr inbounds nuw i8, ptr %29, i64 3
  %31 = sub nsw i64 0, %25
  %32 = getelementptr inbounds i8, ptr %30, i64 %31
  %33 = call ptr @strchr(ptr noundef nonnull dereferenceable(1) %32, i32 noundef 47) #22
  %.not42.i = icmp eq ptr %33, null
  %spec.select.i = select i1 %.not42.i, ptr %32, ptr %33
  %34 = ptrtoint ptr %spec.select.i to i64
  %35 = ptrtoint ptr %28 to i64
  %36 = sub i64 %34, %35
  call void @strbuf_splice(ptr noundef nonnull %3, i64 noundef 0, i64 noundef %36, ptr noundef nonnull @.str.253, i64 noundef 3) #21
  br label %37

37:                                               ; preds = %27, %20
  %38 = getelementptr inbounds nuw i8, ptr %.01315, i64 64
  %39 = load i16, ptr %38, align 8
  %40 = and i16 %39, 4
  %.not43.i = icmp eq i16 %40, 0
  %41 = load ptr, ptr %6, align 8, !tbaa !69
  br i1 %.not43.i, label %44, label %42

42:                                               ; preds = %37
  %43 = call i32 (ptr, ...) @printf(ptr noundef nonnull dereferenceable(1) @.str.254, i32 noundef %spec.store.select.i, ptr noundef %41)
  call void @strbuf_release(ptr noundef nonnull %3) #21
  br label %show_stats.exit

44:                                               ; preds = %37
  %45 = call i32 (ptr, ...) @printf(ptr noundef nonnull dereferenceable(1) @.str.255, i32 noundef %spec.store.select.i, ptr noundef %41)
  call void @strbuf_release(ptr noundef nonnull %3) #21
  %46 = load i32, ptr %7, align 8, !tbaa !143
  %47 = load i32, ptr %10, align 8, !tbaa !133
  %48 = load i32, ptr %13, align 4, !tbaa !134
  %49 = icmp sgt i32 %46, 0
  br i1 %49, label %50, label %._crit_edge.i

._crit_edge.i:                                    ; preds = %44
  %.pre.i = add nsw i32 %48, %47
  br label %64

50:                                               ; preds = %44
  %51 = add nsw i32 %46, %spec.store.select.i
  %52 = icmp sgt i32 %51, 70
  %53 = sub nsw i32 70, %spec.store.select.i
  %54 = select i1 %52, i32 %53, i32 %46
  %55 = add nsw i32 %48, %47
  %56 = mul nsw i32 %55, %54
  %57 = lshr i32 %46, 1
  %58 = add nsw i32 %56, %57
  %59 = sdiv i32 %58, %46
  %60 = mul nsw i32 %54, %47
  %61 = add nsw i32 %60, %57
  %62 = sdiv i32 %61, %46
  %63 = sub nsw i32 %59, %62
  br label %64

64:                                               ; preds = %50, %._crit_edge.i
  %.pre-phi.i = phi i32 [ %.pre.i, %._crit_edge.i ], [ %55, %50 ]
  %.036.i = phi i32 [ %47, %._crit_edge.i ], [ %62, %50 ]
  %.035.i = phi i32 [ %48, %._crit_edge.i ], [ %63, %50 ]
  %65 = call i32 (ptr, ...) @printf(ptr noundef nonnull dereferenceable(1) @.str.256, i32 noundef %.pre-phi.i, i32 noundef %.036.i, ptr noundef nonnull @pluses, i32 noundef %.035.i, ptr noundef nonnull @minuses)
  br label %show_stats.exit

show_stats.exit:                                  ; preds = %42, %64
  call void @llvm.lifetime.end.p0(i64 24, ptr nonnull %3) #21
  %66 = getelementptr inbounds nuw i8, ptr %.01315, i64 232
  %67 = load ptr, ptr %66, align 8, !tbaa !141
  %.not = icmp eq ptr %67, null
  br i1 %.not, label %._crit_edge, label %8, !llvm.loop !214

._crit_edge:                                      ; preds = %show_stats.exit, %2
  %.012.lcssa = phi i32 [ 0, %2 ], [ %9, %show_stats.exit ]
  %.011.lcssa = phi i32 [ 0, %2 ], [ %12, %show_stats.exit ]
  %.0.lcssa = phi i32 [ 0, %2 ], [ %15, %show_stats.exit ]
  %68 = load ptr, ptr @stdout, align 8, !tbaa !128
  call void @print_stat_summary(ptr noundef %68, i32 noundef %.012.lcssa, i32 noundef %.011.lcssa, i32 noundef %.0.lcssa) #21
  ret void
}